# SymbolsHelper-Confirmed: 0.3.0 amd64 armel armhf hurd-i386 i386 mips mipsel powerpc sparc
libkpeoplewidgets.so.4 libkpeoplewidgets4 #MINVER#
 _ZN7KPeople17PersonDetailsView11qt_metacallEN11QMetaObject4CallEiPPv@Base 0.3.0
 _ZN7KPeople17PersonDetailsView11qt_metacastEPKc@Base 0.3.0
 _ZN7KPeople17PersonDetailsView16staticMetaObjectE@Base 0.3.0
 _ZN7KPeople17PersonDetailsView6reloadEv@Base 0.3.0
 _ZN7KPeople17PersonDetailsView9setPersonEPNS_10PersonDataE@Base 0.3.0
 _ZN7KPeople17PersonDetailsViewC1EP7QWidget@Base 0.3.0
 _ZN7KPeople17PersonDetailsViewC2EP7QWidget@Base 0.3.0
 _ZN7KPeople17PersonDetailsViewD0Ev@Base 0.3.0
 _ZN7KPeople17PersonDetailsViewD1Ev@Base 0.3.0
 _ZN7KPeople17PersonDetailsViewD2Ev@Base 0.3.0
 _ZN7KPeople19PersonDetailsDialog11qt_metacallEN11QMetaObject4CallEiPPv@Base 0.3.0
 _ZN7KPeople19PersonDetailsDialog11qt_metacastEPKc@Base 0.3.0
 _ZN7KPeople19PersonDetailsDialog16staticMetaObjectE@Base 0.3.0
 _ZN7KPeople19PersonDetailsDialog9setPersonEPNS_10PersonDataE@Base 0.3.0
 _ZN7KPeople19PersonDetailsDialogC1EP7QWidget6QFlagsIN2Qt10WindowTypeEE@Base 0.3.0
 _ZN7KPeople19PersonDetailsDialogC2EP7QWidget6QFlagsIN2Qt10WindowTypeEE@Base 0.3.0
 _ZN7KPeople19PersonDetailsDialogD0Ev@Base 0.3.0
 _ZN7KPeople19PersonDetailsDialogD1Ev@Base 0.3.0
 _ZN7KPeople19PersonDetailsDialogD2Ev@Base 0.3.0
 _ZN7KPeople26AbstractFieldWidgetFactory11qt_metacallEN11QMetaObject4CallEiPPv@Base 0.3.0
 _ZN7KPeople26AbstractFieldWidgetFactory11qt_metacastEPKc@Base 0.3.0
 _ZN7KPeople26AbstractFieldWidgetFactory16staticMetaObjectE@Base 0.3.0
 _ZN7KPeople26AbstractFieldWidgetFactoryC1EP7QObject@Base 0.3.0
 _ZN7KPeople26AbstractFieldWidgetFactoryC2EP7QObject@Base 0.3.0
 _ZN7KPeople26AbstractFieldWidgetFactoryD0Ev@Base 0.3.0
 _ZN7KPeople26AbstractFieldWidgetFactoryD1Ev@Base 0.3.0
 _ZN7KPeople26AbstractFieldWidgetFactoryD2Ev@Base 0.3.0
 _ZNK7KPeople17PersonDetailsView10metaObjectEv@Base 0.3.0
 _ZNK7KPeople19PersonDetailsDialog10metaObjectEv@Base 0.3.0
 _ZNK7KPeople26AbstractFieldWidgetFactory10metaObjectEv@Base 0.3.0
 _ZTIN7KPeople17PersonDetailsViewE@Base 0.3.0
 _ZTIN7KPeople19PersonDetailsDialogE@Base 0.3.0
 _ZTIN7KPeople26AbstractFieldWidgetFactoryE@Base 0.3.0
 _ZTSN7KPeople17PersonDetailsViewE@Base 0.3.0
 _ZTSN7KPeople19PersonDetailsDialogE@Base 0.3.0
 _ZTSN7KPeople26AbstractFieldWidgetFactoryE@Base 0.3.0
 _ZTVN7KPeople17PersonDetailsViewE@Base 0.3.0
 _ZTVN7KPeople19PersonDetailsDialogE@Base 0.3.0
 _ZTVN7KPeople26AbstractFieldWidgetFactoryE@Base 0.3.0
 (c++|arch=!i386 !mips !powerpc !sparc)"non-virtual thunk to KPeople::PersonDetailsDialog::~PersonDetailsDialog()@Base" 0.3.0
 (c++|arch=amd64 armhf sparc)"non-virtual thunk to KPeople::PersonDetailsView::~PersonDetailsView()@Base" 0.3.0
