# SymbolsHelper-Confirmed: 0.1.0 amd64
libkpeople.so.1 libkpeople1 #MINVER#
 _ZN7KPeople10PersonData11dataChangedEv@Base 0.0.80
 _ZN7KPeople10PersonData11loadContactERK7QString@Base 0.0.80
 _ZN7KPeople10PersonData11qt_metacallEN11QMetaObject4CallEiPPv@Base 0.0.80
 _ZN7KPeople10PersonData11qt_metacastEPKc@Base 0.0.80
 _ZN7KPeople10PersonData13createFromUriERK4QUrl@Base 0.0.80
 _ZN7KPeople10PersonData16staticMetaObjectE@Base 0.0.80
 _ZN7KPeople10PersonData19createFromContactIdERK7QString@Base 0.0.80
 _ZN7KPeople10PersonData7loadUriERK4QUrl@Base 0.0.80
 _ZN7KPeople10PersonDataC1EP7QObject@Base 0.0.80
 _ZN7KPeople10PersonDataC2EP7QObject@Base 0.0.80
 _ZN7KPeople10PersonDataD0Ev@Base 0.0.80
 _ZN7KPeople10PersonDataD1Ev@Base 0.0.80
 _ZN7KPeople10PersonDataD2Ev@Base 0.0.80
 _ZN7KPeople10PersonItem18contactDataChangedEv@Base 0.0.80
 _ZN7KPeople10PersonItemC1ERK4QUrl@Base 0.0.80
 _ZN7KPeople10PersonItemC2ERK4QUrl@Base 0.0.80
 _ZN7KPeople10PersonItemD0Ev@Base 0.0.80
 _ZN7KPeople10PersonItemD1Ev@Base 0.0.80
 _ZN7KPeople10PersonItemD2Ev@Base 0.0.80
 _ZN7KPeople11ContactItem10removeDataEi@Base 0.0.80
 _ZN7KPeople11ContactItem14addContactDataEiRK8QVariant@Base 0.0.80
 _ZN7KPeople11ContactItem14setContactDataEiRK8QVariant@Base 0.0.80
 _ZN7KPeople11ContactItem17finishLoadingDataEv@Base 0.0.80
 _ZN7KPeople11ContactItem5clearEv@Base 0.1.0
 _ZN7KPeople11ContactItem8loadDataEPNS_12PersonsModelE@Base 0.0.80
 _ZN7KPeople11ContactItemC1ERK4QUrl@Base 0.0.80
 _ZN7KPeople11ContactItemC2ERK4QUrl@Base 0.0.80
 _ZN7KPeople11ContactItemD0Ev@Base 0.0.80
 _ZN7KPeople11ContactItemD1Ev@Base 0.0.80
 _ZN7KPeople11ContactItemD2Ev@Base 0.0.80
 _ZN7KPeople12PersonsModel10addContactERK4QUrl@Base 0.0.80
 _ZN7KPeople12PersonsModel10startQueryERK5QListINS_19PersonsModelFeatureEE@Base 0.0.80
 _ZN7KPeople12PersonsModel11jobFinishedEP4KJob@Base 0.0.80
 _ZN7KPeople12PersonsModel11qt_metacallEN11QMetaObject4CallEiPPv@Base 0.0.80
 _ZN7KPeople12PersonsModel11qt_metacastEPKc@Base 0.0.80
 _ZN7KPeople12PersonsModel12removePersonERK4QUrl@Base 0.0.80
 _ZN7KPeople12PersonsModel13queryFinishedEPN7Soprano4Util10AsyncQueryE@Base 0.0.80
 _ZN7KPeople12PersonsModel13removeContactERK4QUrl@Base 0.0.80
 _ZN7KPeople12PersonsModel13updateContactEPNS_11ContactItemE@Base 0.0.80
 _ZN7KPeople12PersonsModel13updateContactERK4QUrl@Base 0.0.80
 _ZN7KPeople12PersonsModel14contactChangedERK4QUrl@Base 0.0.80
 _ZN7KPeople12PersonsModel16modelInitializedEv@Base 0.0.80
 _ZN7KPeople12PersonsModel16staticMetaObjectE@Base 0.0.80
 _ZN7KPeople12PersonsModel19addContactsToPersonERK4QUrlRK5QListIS1_E@Base 0.0.80
 _ZN7KPeople12PersonsModel20createPersonFromUrisERK5QListI4QUrlE@Base 0.0.80
 _ZN7KPeople12PersonsModel21updateContactFinishedEPN7Soprano4Util10AsyncQueryE@Base 0.0.80
 _ZN7KPeople12PersonsModel23unlinkContactFromPersonERK4QUrlRK5QListIS1_E@Base 0.0.80
 _ZN7KPeople12PersonsModel24removeContactsFromPersonERK4QUrlRK5QListIS1_E@Base 0.0.80
 _ZN7KPeople12PersonsModel5queryERK7QString@Base 0.0.80
 _ZN7KPeople12PersonsModel9addPersonERK4QUrl@Base 0.0.80
 _ZN7KPeople12PersonsModel9nextReadyEPN7Soprano4Util10AsyncQueryE@Base 0.0.80
 _ZN7KPeople12PersonsModelC1EP7QObject@Base 0.0.80
 _ZN7KPeople12PersonsModelC2EP7QObject@Base 0.0.80
 _ZN7KPeople12PersonsModelD0Ev@Base 0.0.80
 _ZN7KPeople12PersonsModelD1Ev@Base 0.0.80
 _ZN7KPeople12PersonsModelD2Ev@Base 0.0.80
 _ZN7KPeople13MatchesSolver11qt_metacallEN11QMetaObject4CallEiPPv@Base 0.0.80
 _ZN7KPeople13MatchesSolver11qt_metacastEPKc@Base 0.0.80
 _ZN7KPeople13MatchesSolver13startMatchingEv@Base 0.0.80
 _ZN7KPeople13MatchesSolver16staticMetaObjectE@Base 0.0.80
 _ZN7KPeople13MatchesSolver5startEv@Base 0.0.80
 _ZN7KPeople13MatchesSolver7jobDoneEP4KJob@Base 0.0.80
 _ZN7KPeople13MatchesSolverC1ERK5QListINS_5MatchEEPNS_12PersonsModelEP7QObject@Base 0.0.80
 _ZN7KPeople13MatchesSolverC2ERK5QListINS_5MatchEEPNS_12PersonsModelEP7QObject@Base 0.0.80
 _ZN7KPeople13MatchesSolverD0Ev@Base 0.0.80
 _ZN7KPeople13MatchesSolverD1Ev@Base 0.0.80
 _ZN7KPeople13MatchesSolverD2Ev@Base 0.0.80
 _ZN7KPeople16DuplicatesFinder11qt_metacallEN11QMetaObject4CallEiPPv@Base 0.0.80
 _ZN7KPeople16DuplicatesFinder11qt_metacastEPKc@Base 0.0.80
 _ZN7KPeople16DuplicatesFinder14valuesForIndexERK11QModelIndex@Base 0.0.80
 _ZN7KPeople16DuplicatesFinder16doSpecificSearchEv@Base 0.0.80
 _ZN7KPeople16DuplicatesFinder16staticMetaObjectE@Base 0.0.80
 _ZN7KPeople16DuplicatesFinder17setSpecificPersonERK4QUrl@Base 0.0.80
 _ZN7KPeople16DuplicatesFinder5startEv@Base 0.0.80
 _ZN7KPeople16DuplicatesFinder8doSearchEv@Base 0.0.80
 _ZN7KPeople16DuplicatesFinderC1EPNS_12PersonsModelEP7QObject@Base 0.0.80
 _ZN7KPeople16DuplicatesFinderC2EPNS_12PersonsModelEP7QObject@Base 0.0.80
 _ZN7KPeople16DuplicatesFinderD0Ev@Base 0.0.80
 _ZN7KPeople16DuplicatesFinderD1Ev@Base 0.0.80
 _ZN7KPeople16DuplicatesFinderD2Ev@Base 0.0.80
 _ZN7KPeople17DataSourceWatcher11qt_metacallEN11QMetaObject4CallEiPPv@Base 0.0.80
 _ZN7KPeople17DataSourceWatcher11qt_metacastEPKc@Base 0.0.80
 _ZN7KPeople17DataSourceWatcher12watchContactERK7QStringRK4QUrl@Base 0.0.80
 _ZN7KPeople17DataSourceWatcher14contactChangedERK4QUrl@Base 0.0.80
 _ZN7KPeople17DataSourceWatcher16onContactChangedERK7QString@Base 0.0.80
 _ZN7KPeople17DataSourceWatcher16staticMetaObjectE@Base 0.0.80
 _ZN7KPeople17DataSourceWatcher20clearWatchedContactsEv@Base 0.0.80
 _ZN7KPeople17DataSourceWatcherC1EP7QObject@Base 0.0.80
 _ZN7KPeople17DataSourceWatcherC2EP7QObject@Base 0.0.80
 _ZN7KPeople17DataSourceWatcherD0Ev@Base 0.0.80
 _ZN7KPeople17DataSourceWatcherD1Ev@Base 0.0.80
 _ZN7KPeople17DataSourceWatcherD2Ev@Base 0.0.80
 _ZN7KPeople18PersonActionsModel11qt_metacallEN11QMetaObject4CallEiPPv@Base 0.0.80
 _ZN7KPeople18PersonActionsModel11qt_metacastEPKc@Base 0.0.80
 _ZN7KPeople18PersonActionsModel13personChangedEv@Base 0.0.80
 _ZN7KPeople18PersonActionsModel16staticMetaObjectE@Base 0.0.80
 _ZN7KPeople18PersonActionsModel9setPersonEP18QAbstractItemModeli@Base 0.0.80
 _ZN7KPeople18PersonActionsModel9setPersonERK21QPersistentModelIndex@Base 0.0.80
 _ZN7KPeople18PersonActionsModelC1EP7QObject@Base 0.0.80
 _ZN7KPeople18PersonActionsModelC2EP7QObject@Base 0.0.80
 _ZN7KPeople18PersonActionsModelD0Ev@Base 0.0.80
 _ZN7KPeople18PersonActionsModelD1Ev@Base 0.0.80
 _ZN7KPeople18PersonActionsModelD2Ev@Base 0.0.80
 _ZN7KPeople19PersonPluginManager14presencePluginEv@Base 0.0.80
 _ZN7KPeople19PersonPluginManager16actionsForPersonE14QSharedPointerINS_10PersonDataEEP7QObject@Base 0.0.80
 _ZN7KPeople19PersonsModelFeature11allFeaturesEv@Base 0.0.80
 _ZN7KPeople19PersonsModelFeature11setOptionalEb@Base 0.0.80
 _ZN7KPeople19PersonsModelFeature12setQueryPartERK7QString@Base 0.0.80
 _ZN7KPeople19PersonsModelFeature14commonFeaturesEv@Base 0.0.80
 _ZN7KPeople19PersonsModelFeature14imModelFeatureENS0_11OptionalityE@Base 0.0.80
 _ZN7KPeople19PersonsModelFeature14setBindingsMapE5QHashI7QStringiE@Base 0.0.80
 _ZN7KPeople19PersonsModelFeature17emailModelFeatureENS0_11OptionalityE@Base 0.0.80
 _ZN7KPeople19PersonsModelFeature18avatarModelFeatureENS0_11OptionalityE@Base 0.0.80
 _ZN7KPeople19PersonsModelFeature18groupsModelFeatureENS0_11OptionalityE@Base 0.0.80
 _ZN7KPeople19PersonsModelFeature18setWatcherPropertyERK4QUrl@Base 0.0.80
 _ZN7KPeople19PersonsModelFeature20fullNameModelFeatureENS0_11OptionalityE@Base 0.0.80
 _ZN7KPeople19PersonsModelFeature20nicknameModelFeatureENS0_11OptionalityE@Base 0.0.80
 _ZN7KPeople19PersonsModelFeatureC1ERKS0_@Base 0.0.80
 _ZN7KPeople19PersonsModelFeatureC1Ev@Base 0.0.80
 _ZN7KPeople19PersonsModelFeatureC2ERKS0_@Base 0.0.80
 _ZN7KPeople19PersonsModelFeatureC2Ev@Base 0.0.80
 _ZN7KPeople19PersonsModelFeatureD0Ev@Base 0.0.80
 _ZN7KPeople19PersonsModelFeatureD1Ev@Base 0.0.80
 _ZN7KPeople19PersonsModelFeatureD2Ev@Base 0.0.80
 _ZN7KPeople19PersonsModelFeatureaSERKS0_@Base 0.0.80
 _ZN7KPeople20AbstractPersonPlugin11qt_metacallEN11QMetaObject4CallEiPPv@Base 0.0.80
 _ZN7KPeople20AbstractPersonPlugin11qt_metacastEPKc@Base 0.0.80
 _ZN7KPeople20AbstractPersonPlugin16actionsForPersonERK14QSharedPointerINS_10PersonDataEEP7QObject@Base 0.0.80
 _ZN7KPeople20AbstractPersonPlugin16staticMetaObjectE@Base 0.0.80
 _ZN7KPeople20AbstractPersonPluginC1EP7QObject@Base 0.0.80
 _ZN7KPeople20AbstractPersonPluginC2EP7QObject@Base 0.0.80
 _ZN7KPeople20AbstractPersonPluginD0Ev@Base 0.0.80
 _ZN7KPeople20AbstractPersonPluginD1Ev@Base 0.0.80
 _ZN7KPeople20AbstractPersonPluginD2Ev@Base 0.0.80
 _ZN7KPeople21BasePersonsDataSource11qt_metacallEN11QMetaObject4CallEiPPv@Base 0.0.80
 _ZN7KPeople21BasePersonsDataSource11qt_metacastEPKc@Base 0.0.80
 _ZN7KPeople21BasePersonsDataSource14contactChangedERK7QString@Base 0.0.80
 _ZN7KPeople21BasePersonsDataSource16staticMetaObjectE@Base 0.0.80
 _ZN7KPeople21BasePersonsDataSourceC1EP7QObject@Base 0.0.80
 _ZN7KPeople21BasePersonsDataSourceC2EP7QObject@Base 0.0.80
 _ZN7KPeople21BasePersonsDataSourceD0Ev@Base 0.0.80
 _ZN7KPeople21BasePersonsDataSourceD1Ev@Base 0.0.80
 _ZN7KPeople21BasePersonsDataSourceD2Ev@Base 0.0.80
 _ZNK7KPeople10PersonData10imAccountsEv@Base 0.0.80
 _ZNK7KPeople10PersonData10metaObjectEv@Base 0.0.80
 _ZNK7KPeople10PersonData16contactResourcesEv@Base 0.0.80
 _ZNK7KPeople10PersonData22findMostOnlinePresenceERK11QStringList@Base 0.0.80
 _ZNK7KPeople10PersonData3uriEv@Base 0.0.80
 _ZNK7KPeople10PersonData4nameEv@Base 0.0.80
 _ZNK7KPeople10PersonData6avatarEv@Base 0.0.80
 _ZNK7KPeople10PersonData6emailsEv@Base 0.0.80
 _ZNK7KPeople10PersonData6groupsEv@Base 0.0.80
 _ZNK7KPeople10PersonData6phonesEv@Base 0.0.80
 _ZNK7KPeople10PersonData6statusEv@Base 0.0.80
 _ZNK7KPeople10PersonData7isValidEv@Base 0.0.80
 _ZNK7KPeople10PersonData8birthdayEv@Base 0.0.80
 _ZNK7KPeople10PersonData8isPersonEv@Base 0.0.80
 _ZNK7KPeople10PersonItem20presenceSortPriorityERK7QString@Base 0.0.80
 _ZNK7KPeople10PersonItem20queryChildrenForRoleEi@Base 0.0.80
 _ZNK7KPeople10PersonItem24queryChildrenForRoleListEi@Base 0.0.80
 _ZNK7KPeople10PersonItem3uriEv@Base 0.0.80
 _ZNK7KPeople10PersonItem4dataEi@Base 0.0.80
 _ZNK7KPeople11ContactItem3uriEv@Base 0.0.80
 _ZNK7KPeople11ContactItem4dataEi@Base 0.0.80
 _ZNK7KPeople12PersonsModel10metaObjectEv@Base 0.0.80
 _ZNK7KPeople12PersonsModel11indexForUriERK4QUrl@Base 0.0.80
 _ZNK7KPeople12PersonsModel13modelFeaturesEv@Base 0.0.80
 _ZNK7KPeople12PersonsModel14indexesForUrisERK5QListI8QVariantE@Base 0.0.80
 _ZNK7KPeople12PersonsModel15findRecursivelyEiRK8QVariantRK11QModelIndex@Base 0.0.80
 _ZNK7KPeople12PersonsModel16personItemForUriERK4QUrl@Base 0.0.80
 _ZNK7KPeople12PersonsModel17contactItemForUriERK4QUrl@Base 0.0.80
 _ZNK7KPeople13MatchesSolver10metaObjectEv@Base 0.0.80
 _ZNK7KPeople16DuplicatesFinder10metaObjectEv@Base 0.0.80
 _ZNK7KPeople16DuplicatesFinder7matchAtERK5QListI8QVariantES5_@Base 0.0.80
 _ZNK7KPeople16DuplicatesFinder7resultsEv@Base 0.0.80
 _ZNK7KPeople17DataSourceWatcher10metaObjectEv@Base 0.0.80
 _ZNK7KPeople18PersonActionsModel10metaObjectEv@Base 0.0.80
 _ZNK7KPeople18PersonActionsModel13triggerActionEi@Base 0.0.80
 _ZNK7KPeople18PersonActionsModel4dataERK11QModelIndexi@Base 0.0.80
 _ZNK7KPeople18PersonActionsModel7actionsEv@Base 0.0.80
 _ZNK7KPeople18PersonActionsModel8rowCountERK11QModelIndex@Base 0.0.80
 _ZNK7KPeople19PersonsModelFeature10isOptionalEv@Base 0.0.80
 _ZNK7KPeople19PersonsModelFeature11bindingsMapEv@Base 0.0.80
 _ZNK7KPeople19PersonsModelFeature15watcherPropertyEv@Base 0.0.80
 _ZNK7KPeople19PersonsModelFeature9queryPartEv@Base 0.0.80
 _ZNK7KPeople20AbstractPersonPlugin10metaObjectEv@Base 0.0.80
 _ZNK7KPeople21BasePersonsDataSource10metaObjectEv@Base 0.0.80
 _ZNK7KPeople21BasePersonsDataSource14dataForContactERK7QStringi@Base 0.0.80
 _ZTIN7KPeople10PersonDataE@Base 0.0.80
 _ZTIN7KPeople10PersonItemE@Base 0.0.80
 _ZTIN7KPeople11ContactItemE@Base 0.0.80
 _ZTIN7KPeople12PersonsModelE@Base 0.0.80
 _ZTIN7KPeople13MatchesSolverE@Base 0.0.80
 _ZTIN7KPeople16DuplicatesFinderE@Base 0.0.80
 _ZTIN7KPeople17DataSourceWatcherE@Base 0.0.80
 _ZTIN7KPeople18PersonActionsModelE@Base 0.0.80
 _ZTIN7KPeople19PersonsModelFeatureE@Base 0.0.80
 _ZTIN7KPeople20AbstractPersonPluginE@Base 0.0.80
 _ZTIN7KPeople21BasePersonsDataSourceE@Base 0.0.80
 _ZTSN7KPeople10PersonDataE@Base 0.0.80
 _ZTSN7KPeople10PersonItemE@Base 0.0.80
 _ZTSN7KPeople11ContactItemE@Base 0.0.80
 _ZTSN7KPeople12PersonsModelE@Base 0.0.80
 _ZTSN7KPeople13MatchesSolverE@Base 0.0.80
 _ZTSN7KPeople16DuplicatesFinderE@Base 0.0.80
 _ZTSN7KPeople17DataSourceWatcherE@Base 0.0.80
 _ZTSN7KPeople18PersonActionsModelE@Base 0.0.80
 _ZTSN7KPeople19PersonsModelFeatureE@Base 0.0.80
 _ZTSN7KPeople20AbstractPersonPluginE@Base 0.0.80
 _ZTSN7KPeople21BasePersonsDataSourceE@Base 0.0.80
 _ZTVN7KPeople10PersonDataE@Base 0.0.80
 _ZTVN7KPeople10PersonItemE@Base 0.0.80
 _ZTVN7KPeople11ContactItemE@Base 0.0.80
 _ZTVN7KPeople12PersonsModelE@Base 0.0.80
 _ZTVN7KPeople13MatchesSolverE@Base 0.0.80
 _ZTVN7KPeople16DuplicatesFinderE@Base 0.0.80
 _ZTVN7KPeople17DataSourceWatcherE@Base 0.0.80
 _ZTVN7KPeople18PersonActionsModelE@Base 0.0.80
 _ZTVN7KPeople19PersonsModelFeatureE@Base 0.0.80
 _ZTVN7KPeople20AbstractPersonPluginE@Base 0.0.80
 _ZTVN7KPeople21BasePersonsDataSourceE@Base 0.0.80
libkpeoplewidgets.so.1 libkpeople1 #MINVER#
 _ZN13MergeDelegate11qt_metacallEN11QMetaObject4CallEiPPv@Base 0.0.80
 _ZN13MergeDelegate11qt_metacastEPKc@Base 0.0.80
 _ZN13MergeDelegate16staticMetaObjectE@Base 0.0.80
 _ZN13MergeDelegate20onClickContactParentERK11QModelIndex@Base 0.0.80
 _ZN13MergeDelegate22buildMultipleLineLabelERK11QModelIndex@Base 0.0.80
 _ZN13MergeDelegate25onSelectedContactsChangedERK14QItemSelectionS2_@Base 0.0.80
 _ZN13MergeDelegateC1EP17QAbstractItemView@Base 0.0.80
 _ZN13MergeDelegateC2EP17QAbstractItemView@Base 0.0.80
 _ZN13MergeDelegateD0Ev@Base 0.0.80
 _ZN13MergeDelegateD1Ev@Base 0.0.80
 _ZN13MergeDelegateD2Ev@Base 0.0.80
 _ZN7KPeople11MergeDialog11qt_metacallEN11QMetaObject4CallEiPPv@Base 0.0.80
 _ZN7KPeople11MergeDialog11qt_metacastEPKc@Base 0.0.80
 _ZN7KPeople11MergeDialog15setPersonsModelEPNS_12PersonsModelE@Base 0.0.80
 _ZN7KPeople11MergeDialog16staticMetaObjectE@Base 0.0.80
 _ZN7KPeople11MergeDialog19searchForDuplicatesEv@Base 0.0.80
 _ZN7KPeople11MergeDialog20onMergeButtonClickedEv@Base 0.0.80
 _ZN7KPeople11MergeDialog25itemMergeContactFromMatchERK11QModelIndexRKNS_5MatchE@Base 0.0.80
 _ZN7KPeople11MergeDialog27searchForDuplicatesFinishedEP4KJob@Base 0.0.80
 _ZN7KPeople11MergeDialog29feedDuplicateModelFromMatchesERK5QListINS_5MatchEE@Base 0.0.80
 _ZN7KPeople11MergeDialogC1EP7QWidget@Base 0.0.80
 _ZN7KPeople11MergeDialogC2EP7QWidget@Base 0.0.80
 _ZN7KPeople11MergeDialogD0Ev@Base 0.0.80
 _ZN7KPeople11MergeDialogD1Ev@Base 0.0.80
 _ZN7KPeople11MergeDialogD2Ev@Base 0.0.80
 _ZN7KPeople17PersonDetailsView11qt_metacallEN11QMetaObject4CallEiPPv@Base 0.0.80
 _ZN7KPeople17PersonDetailsView11qt_metacastEPKc@Base 0.0.80
 _ZN7KPeople17PersonDetailsView15setPersonsModelEPNS_12PersonsModelE@Base 0.0.80
 _ZN7KPeople17PersonDetailsView16staticMetaObjectE@Base 0.0.80
 _ZN7KPeople17PersonDetailsView6reloadEv@Base 0.0.80
 _ZN7KPeople17PersonDetailsView9setPersonERK14QSharedPointerINS_10PersonDataEE@Base 0.0.80
 _ZN7KPeople17PersonDetailsViewC1EP7QWidget@Base 0.0.80
 _ZN7KPeople17PersonDetailsViewC2EP7QWidget@Base 0.0.80
 _ZN7KPeople17PersonDetailsViewD0Ev@Base 0.0.80
 _ZN7KPeople17PersonDetailsViewD1Ev@Base 0.0.80
 _ZN7KPeople17PersonDetailsViewD2Ev@Base 0.0.80
 _ZN7KPeople19PersonDetailsDialog11qt_metacallEN11QMetaObject4CallEiPPv@Base 0.0.80
 _ZN7KPeople19PersonDetailsDialog11qt_metacastEPKc@Base 0.0.80
 _ZN7KPeople19PersonDetailsDialog16staticMetaObjectE@Base 0.0.80
 _ZN7KPeople19PersonDetailsDialog9setPersonERK14QSharedPointerINS_10PersonDataEE@Base 0.0.80
 _ZN7KPeople19PersonDetailsDialogC1EP7QWidget6QFlagsIN2Qt10WindowTypeEE@Base 0.0.80
 _ZN7KPeople19PersonDetailsDialogC2EP7QWidget6QFlagsIN2Qt10WindowTypeEE@Base 0.0.80
 _ZN7KPeople19PersonDetailsDialogD0Ev@Base 0.0.80
 _ZN7KPeople19PersonDetailsDialogD1Ev@Base 0.0.80
 _ZN7KPeople19PersonDetailsDialogD2Ev@Base 0.0.80
 _ZN7KPeople27AbstractPersonDetailsWidget11qt_metacallEN11QMetaObject4CallEiPPv@Base 0.0.80
 _ZN7KPeople27AbstractPersonDetailsWidget11qt_metacastEPKc@Base 0.0.80
 _ZN7KPeople27AbstractPersonDetailsWidget13activeChangedEb@Base 0.0.80
 _ZN7KPeople27AbstractPersonDetailsWidget15setPersonsModelEPNS_12PersonsModelE@Base 0.0.80
 _ZN7KPeople27AbstractPersonDetailsWidget16staticMetaObjectE@Base 0.0.80
 _ZN7KPeople27AbstractPersonDetailsWidget7setIconERK5QIcon@Base 0.0.80
 _ZN7KPeople27AbstractPersonDetailsWidget8setTitleERK7QString@Base 0.0.80
 _ZN7KPeople27AbstractPersonDetailsWidget9setActiveEb@Base 0.0.80
 _ZN7KPeople27AbstractPersonDetailsWidgetC1EP7QWidget@Base 0.0.80
 _ZN7KPeople27AbstractPersonDetailsWidgetC2EP7QWidget@Base 0.0.80
 _ZN7KPeople27AbstractPersonDetailsWidgetD0Ev@Base 0.0.80
 _ZN7KPeople27AbstractPersonDetailsWidgetD1Ev@Base 0.0.80
 _ZN7KPeople27AbstractPersonDetailsWidgetD2Ev@Base 0.0.80
 _ZNK13MergeDelegate10metaObjectEv@Base 0.0.80
 _ZNK13MergeDelegate5paintEP8QPainterRK20QStyleOptionViewItemRK11QModelIndex@Base 0.0.80
 _ZNK13MergeDelegate8sizeHintERK20QStyleOptionViewItemRK11QModelIndex@Base 0.0.80
 _ZNK7KPeople11MergeDialog10metaObjectEv@Base 0.0.80
 _ZNK7KPeople17PersonDetailsView10metaObjectEv@Base 0.0.80
 _ZNK7KPeople19PersonDetailsDialog10metaObjectEv@Base 0.0.80
 _ZNK7KPeople27AbstractPersonDetailsWidget10metaObjectEv@Base 0.0.80
 _ZNK7KPeople27AbstractPersonDetailsWidget4iconEv@Base 0.0.80
 _ZNK7KPeople27AbstractPersonDetailsWidget5titleEv@Base 0.0.80
 _ZNK7KPeople27AbstractPersonDetailsWidget6activeEv@Base 0.0.80
 _ZTI13MergeDelegate@Base 0.0.80
 _ZTIN7KPeople11MergeDialogE@Base 0.0.80
 _ZTIN7KPeople17PersonDetailsViewE@Base 0.0.80
 _ZTIN7KPeople19PersonDetailsDialogE@Base 0.0.80
 _ZTIN7KPeople27AbstractPersonDetailsWidgetE@Base 0.0.80
 _ZTS13MergeDelegate@Base 0.0.80
 _ZTSN7KPeople11MergeDialogE@Base 0.0.80
 _ZTSN7KPeople17PersonDetailsViewE@Base 0.0.80
 _ZTSN7KPeople19PersonDetailsDialogE@Base 0.0.80
 _ZTSN7KPeople27AbstractPersonDetailsWidgetE@Base 0.0.80
 _ZTV13MergeDelegate@Base 0.0.80
 _ZTVN7KPeople11MergeDialogE@Base 0.0.80
 _ZTVN7KPeople17PersonDetailsViewE@Base 0.0.80
 _ZTVN7KPeople19PersonDetailsDialogE@Base 0.0.80
 _ZTVN7KPeople27AbstractPersonDetailsWidgetE@Base 0.0.80
 (c++)"non-virtual thunk to KPeople::AbstractPersonDetailsWidget::~AbstractPersonDetailsWidget()@Base" 0.0.80
 (c++)"non-virtual thunk to KPeople::MergeDialog::~MergeDialog()@Base" 0.0.80
 (c++)"non-virtual thunk to KPeople::PersonDetailsDialog::~PersonDetailsDialog()@Base" 0.0.80
 (c++)"non-virtual thunk to KPeople::PersonDetailsView::~PersonDetailsView()@Base" 0.0.80
