# SymbolsHelper-Confirmed: 0.3.0 amd64
libkpeople.so.4 libkpeople4 #MINVER#
 _ZN13PersonManager11qt_metacallEN11QMetaObject4CallEiPPv@Base 0.2.0
 _ZN13PersonManager11qt_metacastEPKc@Base 0.2.0
 _ZN13PersonManager13mergeContactsERK11QStringList@Base 0.2.0
 _ZN13PersonManager14unmergeContactERK7QString@Base 0.2.0
 _ZN13PersonManager16staticMetaObjectE@Base 0.2.0
 _ZN13PersonManager20contactAddedToPersonERK7QStringS2_@Base 0.2.0
 _ZN13PersonManager24contactRemovedFromPersonERK7QString@Base 0.2.0
 _ZN13PersonManager8instanceERK7QString@Base 0.2.0
 _ZN13PersonManagerC1ERK7QStringP7QObject@Base 0.2.0
 _ZN13PersonManagerC2ERK7QStringP7QObject@Base 0.2.0
 _ZN13PersonManagerD0Ev@Base 0.2.0
 _ZN13PersonManagerD1Ev@Base 0.2.0
 _ZN13PersonManagerD2Ev@Base 0.2.0
 _ZN7KPeople10PersonData11dataChangedEv@Base 0.2.0
 _ZN7KPeople10PersonData11qt_metacallEN11QMetaObject4CallEiPPv@Base 0.2.0
 _ZN7KPeople10PersonData11qt_metacastEPKc@Base 0.2.0
 _ZN7KPeople10PersonData16onContactChangedEv@Base 0.2.0
 _ZN7KPeople10PersonData16staticMetaObjectE@Base 0.2.0
 _ZN7KPeople10PersonDataC1ERK7QStringP7QObject@Base 0.2.0
 _ZN7KPeople10PersonDataC2ERK7QStringP7QObject@Base 0.2.0
 _ZN7KPeople10PersonDataD0Ev@Base 0.2.0
 _ZN7KPeople10PersonDataD1Ev@Base 0.2.0
 _ZN7KPeople10PersonDataD2Ev@Base 0.2.0
 _ZN7KPeople12PersonsModel11qt_metacallEN11QMetaObject4CallEiPPv@Base 0.2.0
 _ZN7KPeople12PersonsModel11qt_metacastEPKc@Base 0.2.0
 _ZN7KPeople12PersonsModel12removePersonERK7QString@Base 0.2.0
 _ZN7KPeople12PersonsModel13personChangedERK7QString@Base 0.2.0
 _ZN7KPeople12PersonsModel14onContactAddedERK7QStringRKN4KABC9AddresseeE@Base 0.2.0
 _ZN7KPeople12PersonsModel16modelInitializedEb@Base 0.3.0
 (c++|optional=gccinternal")_ZN7KPeople12PersonsModel16modelInitializedEv@Base 0.2.0
 _ZN7KPeople12PersonsModel16onContactChangedERK7QStringRKN4KABC9AddresseeE@Base 0.2.0
 _ZN7KPeople12PersonsModel16onContactRemovedERK7QString@Base 0.2.0
 _ZN7KPeople12PersonsModel16staticMetaObjectE@Base 0.2.0
 _ZN7KPeople12PersonsModel17onContactsFetchedEv@Base 0.2.0
 _ZN7KPeople12PersonsModel20onAddContactToPersonERK7QStringS3_@Base 0.2.0
 _ZN7KPeople12PersonsModel26onRemoveContactsFromPersonERK7QString@Base 0.2.0
 _ZN7KPeople12PersonsModel29onMonitorInitialFetchCompleteEb@Base 0.3.0
 (c++|optional=gccinternal")_ZN7KPeople12PersonsModel29onMonitorInitialFetchCompleteEv@Base 0.2.0
 _ZN7KPeople12PersonsModel9addPersonERKNS_11MetaContactE@Base 0.2.0
 _ZN7KPeople12PersonsModelC1EP7QObject@Base 0.2.0
 _ZN7KPeople12PersonsModelC2EP7QObject@Base 0.2.0
 _ZN7KPeople12PersonsModelD0Ev@Base 0.2.0
 _ZN7KPeople12PersonsModelD1Ev@Base 0.2.0
 _ZN7KPeople12PersonsModelD2Ev@Base 0.2.0
 _ZN7KPeople13mergeContactsERK11QStringList@Base 0.2.0
 _ZN7KPeople14ContactMonitor10setContactERKN4KABC9AddresseeE@Base 0.2.0
 _ZN7KPeople14ContactMonitor11qt_metacallEN11QMetaObject4CallEiPPv@Base 0.2.0
 _ZN7KPeople14ContactMonitor11qt_metacastEPKc@Base 0.2.0
 _ZN7KPeople14ContactMonitor14contactChangedEv@Base 0.2.0
 _ZN7KPeople14ContactMonitor16staticMetaObjectE@Base 0.2.0
 _ZN7KPeople14ContactMonitorC1ERK7QString@Base 0.2.0
 _ZN7KPeople14ContactMonitorC2ERK7QString@Base 0.2.0
 _ZN7KPeople14ContactMonitorD0Ev@Base 0.2.0
 _ZN7KPeople14ContactMonitorD1Ev@Base 0.2.0
 _ZN7KPeople14ContactMonitorD2Ev@Base 0.2.0
 _ZN7KPeople14unmergeContactERK7QString@Base 0.2.0
 _ZN7KPeople16actionsForPersonERKN4KABC9AddresseeERKNS0_13AddresseeListEP7QObject@Base 0.2.0
 _ZN7KPeople18AllContactsMonitor11qt_metacallEN11QMetaObject4CallEiPPv@Base 0.2.0
 _ZN7KPeople18AllContactsMonitor11qt_metacastEPKc@Base 0.2.0
 _ZN7KPeople18AllContactsMonitor12contactAddedERK7QStringRKN4KABC9AddresseeE@Base 0.2.0
 _ZN7KPeople18AllContactsMonitor14contactChangedERK7QStringRKN4KABC9AddresseeE@Base 0.2.0
 _ZN7KPeople18AllContactsMonitor14contactRemovedERK7QString@Base 0.2.0
 _ZN7KPeople18AllContactsMonitor16staticMetaObjectE@Base 0.2.0
 _ZN7KPeople18AllContactsMonitor20initialFetchCompleteEb@Base 0.3.0
 (c++|optional=gccinternal")_ZN7KPeople18AllContactsMonitor20initialFetchCompleteEv@Base 0.2.0
 _ZN7KPeople18AllContactsMonitor24emitInitialFetchCompleteEb@Base 0.3.0
 (c++|optional=gccinternal")_ZN7KPeople18AllContactsMonitor24emitInitialFetchCompleteEv@Base 0.2.0
 _ZN7KPeople18AllContactsMonitor8contactsEv@Base 0.2.0
 _ZN7KPeople18AllContactsMonitorC1Ev@Base 0.2.0
 _ZN7KPeople18AllContactsMonitorC2Ev@Base 0.2.0
 _ZN7KPeople18AllContactsMonitorD0Ev@Base 0.2.0
 _ZN7KPeople18AllContactsMonitorD1Ev@Base 0.2.0
 _ZN7KPeople18AllContactsMonitorD2Ev@Base 0.2.0
 _ZN7KPeople19PersonPluginManager10dataSourceERK7QString@Base 0.2.0
 _ZN7KPeople19PersonPluginManager17dataSourcePluginsEv@Base 0.2.0
 _ZN7KPeople19PersonPluginManager20setDataSourcePluginsERK5QHashI7QStringPNS_21BasePersonsDataSourceEE@Base 0.2.0
 _ZN7KPeople19PersonPluginManager7actionsEv@Base 0.2.0
 _ZN7KPeople20AbstractPersonAction11qt_metacallEN11QMetaObject4CallEiPPv@Base 0.2.0
 _ZN7KPeople20AbstractPersonAction11qt_metacastEPKc@Base 0.2.0
 _ZN7KPeople20AbstractPersonAction16staticMetaObjectE@Base 0.2.0
 _ZN7KPeople20AbstractPersonActionC1EP7QObject@Base 0.2.0
 _ZN7KPeople20AbstractPersonActionC2EP7QObject@Base 0.2.0
 _ZN7KPeople20presenceSortPriorityERK7QString@Base 0.2.0
 _ZN7KPeople21BasePersonsDataSource11qt_metacallEN11QMetaObject4CallEiPPv@Base 0.2.0
 _ZN7KPeople21BasePersonsDataSource11qt_metacastEPKc@Base 0.2.0
 _ZN7KPeople21BasePersonsDataSource14contactMonitorERK7QString@Base 0.2.0
 _ZN7KPeople21BasePersonsDataSource16staticMetaObjectE@Base 0.2.0
 _ZN7KPeople21BasePersonsDataSource18allContactsMonitorEv@Base 0.2.0
 _ZN7KPeople21BasePersonsDataSource20createContactMonitorERK7QString@Base 0.2.0
 _ZN7KPeople21BasePersonsDataSourceC1EP7QObjectRK5QListI8QVariantE@Base 0.2.0
 _ZN7KPeople21BasePersonsDataSourceC2EP7QObjectRK5QListI8QVariantE@Base 0.2.0
 _ZN7KPeople21BasePersonsDataSourceD0Ev@Base 0.2.0
 _ZN7KPeople21BasePersonsDataSourceD1Ev@Base 0.2.0
 _ZN7KPeople21BasePersonsDataSourceD2Ev@Base 0.2.0
 _ZN7KPeople25iconNameForPresenceStringERK7QString@Base 0.2.0
 _ZNK13PersonManager10allPersonsEv@Base 0.2.0
 _ZNK13PersonManager10metaObjectEv@Base 0.2.0
 _ZNK13PersonManager18personIdForContactERK7QString@Base 0.2.0
 _ZNK13PersonManager19contactsForPersonIdERK7QString@Base 0.2.0
 _ZNK7KPeople10PersonData10metaObjectEv@Base 0.2.0
 _ZNK7KPeople10PersonData6personEv@Base 0.2.0
 _ZNK7KPeople10PersonData8contactsEv@Base 0.2.0
 _ZNK7KPeople12PersonsModel10metaObjectEv@Base 0.2.0
 _ZNK7KPeople12PersonsModel11columnCountERK11QModelIndex@Base 0.2.0
 _ZNK7KPeople12PersonsModel13isInitializedEv@Base 0.3.0
 _ZNK7KPeople12PersonsModel16dataForAddresseeERK7QStringRKN4KABC9AddresseeEi@Base 0.2.0
 _ZNK7KPeople12PersonsModel18personIdForContactERK7QString@Base 0.2.0
 _ZNK7KPeople12PersonsModel4dataERK11QModelIndexi@Base 0.2.0
 _ZNK7KPeople12PersonsModel5indexEiiRK11QModelIndex@Base 0.2.0
 _ZNK7KPeople12PersonsModel6parentERK11QModelIndex@Base 0.2.0
 _ZNK7KPeople12PersonsModel8rowCountERK11QModelIndex@Base 0.2.0
 _ZNK7KPeople14ContactMonitor10metaObjectEv@Base 0.2.0
 _ZNK7KPeople14ContactMonitor7contactEv@Base 0.2.0
 _ZNK7KPeople14ContactMonitor9contactIdEv@Base 0.2.0
 _ZNK7KPeople18AllContactsMonitor10metaObjectEv@Base 0.2.0
 _ZNK7KPeople18AllContactsMonitor19initialFetchSuccessEv@Base 0.3.0
 _ZNK7KPeople18AllContactsMonitor22isInitialFetchCompleteEv@Base 0.2.0
 _ZNK7KPeople20AbstractPersonAction10metaObjectEv@Base 0.2.0
 _ZNK7KPeople20AbstractPersonAction16actionsForPersonERKN4KABC9AddresseeERKNS1_13AddresseeListEP7QObject@Base 0.2.0
 _ZNK7KPeople21BasePersonsDataSource10metaObjectEv@Base 0.2.0
 _ZTI13PersonManager@Base 0.2.0
 _ZTIN7KPeople10PersonDataE@Base 0.2.0
 _ZTIN7KPeople12PersonsModelE@Base 0.2.0
 _ZTIN7KPeople14ContactMonitorE@Base 0.2.0
 _ZTIN7KPeople18AllContactsMonitorE@Base 0.2.0
 _ZTIN7KPeople20AbstractPersonActionE@Base 0.2.0
 _ZTIN7KPeople21BasePersonsDataSourceE@Base 0.2.0
 _ZTS13PersonManager@Base 0.2.0
 _ZTSN7KPeople10PersonDataE@Base 0.2.0
 _ZTSN7KPeople12PersonsModelE@Base 0.2.0
 _ZTSN7KPeople14ContactMonitorE@Base 0.2.0
 _ZTSN7KPeople18AllContactsMonitorE@Base 0.2.0
 _ZTSN7KPeople20AbstractPersonActionE@Base 0.2.0
 _ZTSN7KPeople21BasePersonsDataSourceE@Base 0.2.0
 _ZTV13PersonManager@Base 0.2.0
 _ZTVN7KPeople10PersonDataE@Base 0.2.0
 _ZTVN7KPeople12PersonsModelE@Base 0.2.0
 _ZTVN7KPeople14ContactMonitorE@Base 0.2.0
 _ZTVN7KPeople18AllContactsMonitorE@Base 0.2.0
 _ZTVN7KPeople20AbstractPersonActionE@Base 0.2.0
 _ZTVN7KPeople21BasePersonsDataSourceE@Base 0.2.0
 (c++|optional=gccinternal")"non-virtual think to KPeople::AbstractPersonAction::~AbstractPersonAction()@Base" 0.2.0
